target datalayout = "e-m:e-p270:32:32-p271:32:32-p272:64:64-i64:64-i128:128-f80:128-n8:16:32:64-S128"
target triple = "x86_64-pc-linux-gnu"

; Function Attrs: nounwind uwtable
define i32 @evp_is_a(ptr noundef %0, i32 noundef %1, ptr noundef %2, ptr noundef %3) #0 {
  %5 = alloca ptr, align 8
  %6 = alloca i32, align 4
  %7 = alloca ptr, align 8
  %8 = alloca ptr, align 8
  %9 = alloca ptr, align 8
  %10 = alloca ptr, align 8
  store ptr %0, ptr %5, align 8, !tbaa !19
  store i32 %1, ptr %6, align 4, !tbaa !8
  store ptr %2, ptr %7, align 8, !tbaa !10
  store ptr %3, ptr %8, align 8, !tbaa !10
  call void @llvm.lifetime.start.p0(i64 8, ptr %9) #6
  %11 = load ptr, ptr %5, align 8, !tbaa !19
  %12 = call ptr @ossl_provider_libctx(ptr noundef %11)
  store ptr %12, ptr %9, align 8, !tbaa !3
  call void @llvm.lifetime.start.p0(i64 8, ptr %10) #6
  %13 = load ptr, ptr %9, align 8, !tbaa !3
  %14 = call ptr @ossl_namemap_stored(ptr noundef %13)
  store ptr %14, ptr %10, align 8, !tbaa !22
  %15 = load ptr, ptr %5, align 8, !tbaa !19
  %16 = icmp eq ptr %15, null
  br i1 %16, label %17, label %21

17:                                               ; preds = %4
  %18 = load ptr, ptr %10, align 8, !tbaa !22
  %19 = load ptr, ptr %7, align 8, !tbaa !10
  %20 = call i32 @ossl_namemap_name2num(ptr noundef %18, ptr noundef %19)
  store i32 %20, ptr %6, align 4, !tbaa !8
  br label %21

21:                                               ; preds = %17, %4
  %22 = load ptr, ptr %10, align 8, !tbaa !22
  %23 = load ptr, ptr %8, align 8, !tbaa !10
  %24 = call i32 @ossl_namemap_name2num(ptr noundef %22, ptr noundef %23)
  %25 = load i32, ptr %6, align 4, !tbaa !8
  %26 = icmp eq i32 %24, %25
  %27 = zext i1 %26 to i32
  call void @llvm.lifetime.end.p0(i64 8, ptr %10) #6
  call void @llvm.lifetime.end.p0(i64 8, ptr %9) #6
  ret i32 %27
}