; Function Attrs: nounwind uwtable
define range(i32 0, 2) i32 @evp_is_a(ptr noundef %0, i32 noundef %1, ptr noundef %2, ptr noundef %3) local_unnamed_addr #0 {
  %5 = tail call ptr @ossl_provider_libctx(ptr noundef %0) #5
  %6 = tail call ptr @ossl_namemap_stored(ptr noundef %5) #5
  %7 = icmp eq ptr %0, null
  br i1 %7, label %8, label %10

8:                                                ; preds = %4
  %9 = tail call i32 @ossl_namemap_name2num(ptr noundef %6, ptr noundef %2) #5
  br label %10

10:                                               ; preds = %8, %4
  %.0 = phi i32 [ %9, %8 ], [ %1, %4 ]
  %11 = tail call i32 @ossl_namemap_name2num(ptr noundef %6, ptr noundef %3) #5
  %12 = icmp eq i32 %11, %.0
  %13 = zext i1 %12 to i32
  ret i32 %13
}